target datalayout = "e-m:e-p270:32:32-p271:32:32-p272:64:64-i64:64-i128:128-f80:128-n8:16:32:64-S128"
target triple = "x86_64-pc-linux-gnu"

%struct.Vec_Int_t_ = type { i32, i32, ptr }
%struct.Gia_ResbMan_t_ = type { i32, i32, i32, i32, i32, i32, i32, i32, ptr, ptr, [2 x ptr], [2 x ptr], [2 x ptr], ptr, [2 x ptr], [2 x ptr], ptr, [2 x ptr], ptr, ptr, ptr }
%struct.Vec_Ptr_t_ = type { i32, i32, ptr }

; Function Attrs: inlinehint nounwind uwtable
define internal i32 @Abc_Var2Lit(i32 noundef %0, i32 noundef %1) #2 {
  %3 = alloca i32, align 4
  %4 = alloca i32, align 4
  store i32 %0, ptr %3, align 4, !tbaa !10
  store i32 %1, ptr %4, align 4, !tbaa !10
  %5 = load i32, ptr %3, align 4, !tbaa !10
  %6 = load i32, ptr %3, align 4, !tbaa !10
  %7 = add nsw i32 %5, %6
  %8 = load i32, ptr %4, align 4, !tbaa !10
  %9 = add nsw i32 %7, %8
  ret i32 %9
}

; Function Attrs: inlinehint nounwind uwtable
define internal i32 @Abc_LitNotCond(i32 noundef %0, i32 noundef %1) #2 {
  %3 = alloca i32, align 4
  %4 = alloca i32, align 4
  store i32 %0, ptr %3, align 4, !tbaa !10
  store i32 %1, ptr %4, align 4, !tbaa !10
  %5 = load i32, ptr %3, align 4, !tbaa !10
  %6 = load i32, ptr %4, align 4, !tbaa !10
  %7 = icmp sgt i32 %6, 0
  %8 = zext i1 %7 to i32
  %9 = xor i32 %5, %8
  ret i32 %9
}

; Function Attrs: inlinehint nounwind uwtable
define internal i32 @Vec_IntSize(ptr noundef %0) #2 {
  %2 = alloca ptr, align 8
  store ptr %0, ptr %2, align 8, !tbaa !12
  %3 = load ptr, ptr %2, align 8, !tbaa !12
  %4 = getelementptr inbounds nuw %struct.Vec_Int_t_, ptr %3, i32 0, i32 1
  %5 = load i32, ptr %4, align 4, !tbaa !14
  ret i32 %5
}

; Function Attrs: inlinehint nounwind uwtable
define internal i32 @Vec_PtrSize(ptr noundef %0) #2 {
  %2 = alloca ptr, align 8
  store ptr %0, ptr %2, align 8, !tbaa !80
  %3 = load ptr, ptr %2, align 8, !tbaa !80
  %4 = getelementptr inbounds nuw %struct.Vec_Ptr_t_, ptr %3, i32 0, i32 1
  %5 = load i32, ptr %4, align 4, !tbaa !81
  ret i32 %5
}

; Function Attrs: nounwind uwtable
define i32 @Gia_ManResubAddNode(ptr noundef %0, i32 noundef %1, i32 noundef %2, i32 noundef %3) #0 {
  %5 = alloca ptr, align 8
  %6 = alloca i32, align 4
  %7 = alloca i32, align 4
  %8 = alloca i32, align 4
  %9 = alloca i32, align 4
  %10 = alloca i32, align 4
  %11 = alloca i32, align 4
  %12 = alloca i32, align 4
  store ptr %0, ptr %5, align 8, !tbaa !67
  store i32 %1, ptr %6, align 4, !tbaa !10
  store i32 %2, ptr %7, align 4, !tbaa !10
  store i32 %3, ptr %8, align 4, !tbaa !10
  call void @llvm.lifetime.start.p0(i64 4, ptr %9) #14
  %13 = load ptr, ptr %5, align 8, !tbaa !67
  %14 = getelementptr inbounds nuw %struct.Gia_ResbMan_t_, ptr %13, i32 0, i32 8
  %15 = load ptr, ptr %14, align 8, !tbaa !75
  %16 = call i32 @Vec_PtrSize(ptr noundef %15)
  %17 = load ptr, ptr %5, align 8, !tbaa !67
  %18 = getelementptr inbounds nuw %struct.Gia_ResbMan_t_, ptr %17, i32 0, i32 9
  %19 = load ptr, ptr %18, align 8, !tbaa !74
  %20 = call i32 @Vec_IntSize(ptr noundef %19)
  %21 = sdiv i32 %20, 2
  %22 = add nsw i32 %16, %21
  store i32 %22, ptr %9, align 4, !tbaa !10
  call void @llvm.lifetime.start.p0(i64 4, ptr %10) #14
  %23 = load i32, ptr %8, align 4, !tbaa !10
  %24 = icmp eq i32 %23, 2
  %25 = zext i1 %24 to i32
  %26 = load i32, ptr %6, align 4, !tbaa !10
  %27 = load i32, ptr %7, align 4, !tbaa !10
  %28 = icmp sgt i32 %26, %27
  %29 = zext i1 %28 to i32
  %30 = xor i32 %25, %29
  store i32 %30, ptr %10, align 4, !tbaa !10
  call void @llvm.lifetime.start.p0(i64 4, ptr %11) #14
  %31 = load i32, ptr %10, align 4, !tbaa !10
  %32 = icmp ne i32 %31, 0
  br i1 %32, label %33, label %35

33:                                               ; preds = %4
  %34 = load i32, ptr %7, align 4, !tbaa !10
  br label %37

35:                                               ; preds = %4
  %36 = load i32, ptr %6, align 4, !tbaa !10
  br label %37

37:                                               ; preds = %35, %33
  %38 = phi i32 [ %34, %33 ], [ %36, %35 ]
  store i32 %38, ptr %11, align 4, !tbaa !10
  call void @llvm.lifetime.start.p0(i64 4, ptr %12) #14
  %39 = load i32, ptr %10, align 4, !tbaa !10
  %40 = icmp ne i32 %39, 0
  br i1 %40, label %41, label %43

41:                                               ; preds = %37
  %42 = load i32, ptr %6, align 4, !tbaa !10
  br label %45

43:                                               ; preds = %37
  %44 = load i32, ptr %7, align 4, !tbaa !10
  br label %45

45:                                               ; preds = %43, %41
  %46 = phi i32 [ %42, %41 ], [ %44, %43 ]
  store i32 %46, ptr %12, align 4, !tbaa !10
  %47 = load i32, ptr %8, align 4, !tbaa !10
  %48 = icmp eq i32 %47, 2
  br i1 %48, label %49, label %50

49:                                               ; preds = %45
  br label %51

50:                                               ; preds = %45
  br label %51

51:                                               ; preds = %50, %49
  %52 = load ptr, ptr %5, align 8, !tbaa !67
  %53 = getelementptr inbounds nuw %struct.Gia_ResbMan_t_, ptr %52, i32 0, i32 9
  %54 = load ptr, ptr %53, align 8, !tbaa !74
  %55 = load i32, ptr %11, align 4, !tbaa !10
  %56 = load i32, ptr %8, align 4, !tbaa !10
  %57 = icmp eq i32 %56, 1
  %58 = zext i1 %57 to i32
  %59 = call i32 @Abc_LitNotCond(i32 noundef %55, i32 noundef %58)
  %60 = load i32, ptr %12, align 4, !tbaa !10
  %61 = load i32, ptr %8, align 4, !tbaa !10
  %62 = icmp eq i32 %61, 1
  %63 = zext i1 %62 to i32
  %64 = call i32 @Abc_LitNotCond(i32 noundef %60, i32 noundef %63)
  call void @Vec_IntPushTwo(ptr noundef %54, i32 noundef %59, i32 noundef %64)
  %65 = load i32, ptr %9, align 4, !tbaa !10
  %66 = load i32, ptr %8, align 4, !tbaa !10
  %67 = icmp eq i32 %66, 1
  %68 = zext i1 %67 to i32
  %69 = call i32 @Abc_Var2Lit(i32 noundef %65, i32 noundef %68)
  call void @llvm.lifetime.end.p0(i64 4, ptr %12) #14
  call void @llvm.lifetime.end.p0(i64 4, ptr %11) #14
  call void @llvm.lifetime.end.p0(i64 4, ptr %10) #14
  call void @llvm.lifetime.end.p0(i64 4, ptr %9) #14
  ret i32 %69
}