; Function Attrs: mustprogress nounwind willreturn uwtable
define i32 @Gia_ManResubAddNode(ptr noundef readonly captures(none) %0, i32 noundef %1, i32 noundef %2, i32 noundef %3) local_unnamed_addr #14 {
  %5 = getelementptr inbounds nuw i8, ptr %0, i64 32
  %6 = load ptr, ptr %5, align 8, !tbaa !77
  %7 = getelementptr i8, ptr %6, i64 4
  %.val18 = load i32, ptr %7, align 4, !tbaa !73
  %8 = getelementptr inbounds nuw i8, ptr %0, i64 40
  %9 = load ptr, ptr %8, align 8, !tbaa !72
  %10 = getelementptr i8, ptr %9, i64 4
  %.val = load i32, ptr %10, align 4, !tbaa !28
  %11 = sdiv i32 %.val, 2
  %12 = add nsw i32 %11, %.val18
  %13 = icmp eq i32 %3, 2
  %14 = icmp sgt i32 %1, %2
  %15 = xor i1 %14, %13
  %16 = select i1 %15, i32 %2, i32 %1
  %17 = select i1 %15, i32 %1, i32 %2
  %18 = icmp eq i32 %3, 1
  %19 = zext i1 %18 to i32
  %20 = xor i32 %16, %19
  %21 = xor i32 %17, %19
  tail call fastcc void @Vec_IntPushTwo(ptr noundef %9, i32 noundef %20, i32 noundef %21)
  %22 = shl nsw i32 %12, 1
  %23 = or disjoint i32 %22, %19
  ret i32 %23
}